; Function Attrs: nounwind uwtable
define hidden i64 @_mi_prim_numa_node() local_unnamed_addr #0 {
  %1 = alloca i64, align 8
  %2 = alloca i64, align 8
  call void @llvm.lifetime.start.p0(i64 8, ptr nonnull %1) #11
  store i64 0, ptr %1, align 8, !tbaa !22
  call void @llvm.lifetime.start.p0(i64 8, ptr nonnull %2) #11
  store i64 0, ptr %2, align 8, !tbaa !22
  %3 = call i64 (i64, ...) @syscall(i64 noundef 309, ptr noundef nonnull %2, ptr noundef nonnull %1, ptr noundef null) #10
  %.not = icmp eq i64 %3, 0
  %4 = load i64, ptr %1, align 8
  %.0 = select i1 %.not, i64 %4, i64 0
  call void @llvm.lifetime.end.p0(i64 8, ptr nonnull %2) #11
  call void @llvm.lifetime.end.p0(i64 8, ptr nonnull %1) #11
  ret i64 %.0
}